; Function Attrs: mustprogress nounwind uwtable
define hidden void @_ZN14ZCollectedHeap7collectEN7GCCause5CauseE(ptr nocapture noundef nonnull readonly align 64 dereferenceable(16344) %0, i32 noundef %1) unnamed_addr #1 align 2 {
  %3 = alloca %class.ZDriverRequest, align 4
  %4 = alloca %class.ZDriverRequest, align 4
  %5 = alloca %class.ZDriverRequest, align 4
  switch i32 %1, label %18 [
    i32 8, label %6
    i32 2, label %6
    i32 7, label %10
    i32 6, label %10
    i32 9, label %10
    i32 10, label %10
    i32 23, label %10
    i32 0, label %10
    i32 1, label %10
    i32 4, label %10
    i32 17, label %10
    i32 15, label %10
    i32 16, label %15
    i32 14, label %15
  ]

6:                                                ; preds = %2, %2
  %7 = getelementptr inbounds i8, ptr %0, i64 16192
  %8 = load ptr, ptr %7, align 64
  %9 = load i32, ptr @ZYoungGCThreads, align 4
  call void @_ZN14ZDriverRequestC1EN7GCCause5CauseEjj(ptr noundef nonnull align 4 dereferenceable(12) %3, i32 noundef %1, i32 noundef %9, i32 noundef 0) #12
  call void @_ZN12ZDriverMinor7collectERK14ZDriverRequest(ptr noundef nonnull align 8 dereferenceable(1264) %8, ptr noundef nonnull align 4 dereferenceable(12) %3) #12
  br label %21

10:                                               ; preds = %2, %2, %2, %2, %2, %2, %2, %2, %2, %2
  %11 = getelementptr inbounds i8, ptr %0, i64 16200
  %12 = load ptr, ptr %11, align 8
  %13 = load i32, ptr @ZYoungGCThreads, align 4
  %14 = load i32, ptr @ZOldGCThreads, align 4
  call void @_ZN14ZDriverRequestC1EN7GCCause5CauseEjj(ptr noundef nonnull align 4 dereferenceable(12) %4, i32 noundef %1, i32 noundef %13, i32 noundef %14) #12
  call void @_ZN12ZDriverMajor7collectERK14ZDriverRequest(ptr noundef nonnull align 8 dereferenceable(1264) %12, ptr noundef nonnull align 4 dereferenceable(12) %4) #12
  br label %21

15:                                               ; preds = %2, %2
  %16 = getelementptr inbounds i8, ptr %0, i64 16200
  %17 = load ptr, ptr %16, align 8
  call void @_ZN14ZDriverRequestC1EN7GCCause5CauseEjj(ptr noundef nonnull align 4 dereferenceable(12) %5, i32 noundef %1, i32 noundef 1, i32 noundef 1) #12
  call void @_ZN12ZDriverMajor7collectERK14ZDriverRequest(ptr noundef nonnull align 8 dereferenceable(1264) %17, ptr noundef nonnull align 4 dereferenceable(12) %5) #12
  br label %21

18:                                               ; preds = %2
  %19 = load ptr, ptr @g_assert_poison, align 8
  store i8 88, ptr %19, align 1
  %20 = tail call noundef ptr @_ZN7GCCause9to_stringENS_5CauseE(i32 noundef %1) #12
  tail call void (i32, ptr, i32, ptr, ...) @_Z12report_fatal11VMErrorTypePKciS1_z(i32 noundef -536870912, ptr noundef nonnull @.str.5, i32 noundef 206, ptr noundef nonnull @.str.6, ptr noundef %20) #13
  unreachable

21:                                               ; preds = %15, %10, %6
  ret void
}